; Function Attrs: nounwind uwtable
define range(i32 -12, 1) i32 @ff_frame_new_side_data_from_buf_ext(ptr noundef readonly captures(none) %0, ptr noundef %1, ptr noundef %2, i32 noundef %3, ptr noundef %4) local_unnamed_addr #0 {
  %6 = getelementptr i8, ptr %0, i64 40
  %.val = load ptr, ptr %6, align 8, !tbaa !4
  %7 = load ptr, ptr %1, align 8, !tbaa !272
  %8 = load i32, ptr %2, align 4, !tbaa !69
  %9 = tail call ptr @av_frame_side_data_get_c(ptr noundef %7, i32 noundef %8, i32 noundef %3) #10
  %.not.i = icmp eq ptr %9, null
  br i1 %.not.i, label %17, label %10

10:                                               ; preds = %5
  %11 = getelementptr inbounds nuw i8, ptr %.val, i64 200
  %12 = load i64, ptr %11, align 8, !tbaa !262
  %13 = zext nneg i32 %3 to i64
  %14 = shl nuw i64 1, %13
  %15 = and i64 %12, %14
  %.not9.i = icmp eq i64 %15, 0
  br i1 %.not9.i, label %16, label %side_data_pref.exit

16:                                               ; preds = %10
  tail call void @av_frame_side_data_remove(ptr noundef nonnull %1, ptr noundef nonnull %2, i32 noundef %3) #10
  br label %17

17:                                               ; preds = %16, %5
  %18 = tail call ptr @av_frame_side_data_add(ptr noundef nonnull %1, ptr noundef nonnull %2, i32 noundef %3, ptr noundef %4, i32 noundef 0) #10
  %.not9 = icmp eq ptr %18, null
  %spec.select = select i1 %.not9, i32 -12, i32 0
  br label %side_data_pref.exit

side_data_pref.exit:                              ; preds = %10, %17
  %.0 = phi i32 [ %spec.select, %17 ], [ 0, %10 ]
  tail call void @av_buffer_unref(ptr noundef %4) #10
  ret i32 %.0
}